; Function Attrs: mustprogress ssp uwtable
define noundef i64 @_ZNK6open3d4core10SizeVector11NumElementsEv(ptr noundef nonnull readonly align 8 captures(none) dereferenceable(48) %0) local_unnamed_addr #0 align 2 personality ptr @__gxx_personality_v0 {
  %2 = alloca %"class.std::__cxx11::basic_string", align 8
  %3 = getelementptr inbounds nuw i8, ptr %0, i64 8
  %4 = load i32, ptr %3, align 8, !tbaa !15
  %5 = icmp eq i32 %4, 0
  br i1 %5, label %"_ZSt10accumulateIPKlxZNK6open3d4core10SizeVector11NumElementsEvE3$_0ET0_T_S7_S6_T1_.exit", label %6

6:                                                ; preds = %1
  %7 = zext i32 %4 to i64
  %8 = load ptr, ptr %0, align 8, !tbaa !11
  %9 = getelementptr inbounds nuw i64, ptr %8, i64 %7
  br label %.lr.ph.i

.lr.ph.i:                                         ; preds = %6, %"_ZZNK6open3d4core10SizeVector11NumElementsEvENK3$_0clERKlS4_.exit.i"
  %.010.i = phi i64 [ %23, %"_ZZNK6open3d4core10SizeVector11NumElementsEvENK3$_0clERKlS4_.exit.i" ], [ 1, %6 ]
  %.059.i = phi ptr [ %24, %"_ZZNK6open3d4core10SizeVector11NumElementsEvENK3$_0clERKlS4_.exit.i" ], [ %8, %6 ]
  %.05.val.i = load i64, ptr %.059.i, align 8
  %10 = icmp slt i64 %.05.val.i, 0
  br i1 %10, label %11, label %"_ZZNK6open3d4core10SizeVector11NumElementsEvENK3$_0clERKlS4_.exit.i"

11:                                               ; preds = %.lr.ph.i
  call void @llvm.lifetime.start.p0(i64 32, ptr nonnull %2) #29
  call void @_ZNK6open3d4core10SizeVector8ToStringB5cxx11Ev(ptr dead_on_unwind nonnull writable sret(%"class.std::__cxx11::basic_string") align 8 %2, ptr noundef nonnull readonly align 8 dereferenceable(48) %0)
  invoke void @_ZN6open3d7utility6Logger9LogError_IJNSt7__cxx1112basic_stringIcSt11char_traitsIcESaIcEEEEEEvPKciSA_SA_DpOT_(ptr noundef nonnull @.str, i32 noundef 118, ptr noundef nonnull @"__PRETTY_FUNCTION__._ZZNK6open3d4core10SizeVector11NumElementsEvENK3$_0clERKlS4_", ptr noundef nonnull @.str.55, ptr noundef nonnull align 8 dereferenceable(32) %2) #31
          to label %12 unwind label %13

12:                                               ; preds = %11
  unreachable

13:                                               ; preds = %11
  %14 = landingpad { ptr, i32 }
          cleanup
  %15 = load ptr, ptr %2, align 8, !tbaa !34
  %16 = getelementptr inbounds nuw i8, ptr %2, i64 16
  %17 = icmp eq ptr %15, %16
  br i1 %17, label %_ZNKSt7__cxx1112basic_stringIcSt11char_traitsIcESaIcEE11_M_is_localEv.exit.thread.i.i.i.i, label %_ZNKSt7__cxx1112basic_stringIcSt11char_traitsIcESaIcEE11_M_is_localEv.exit.i.i.i.i

_ZNKSt7__cxx1112basic_stringIcSt11char_traitsIcESaIcEE11_M_is_localEv.exit.thread.i.i.i.i: ; preds = %13
  %18 = getelementptr inbounds nuw i8, ptr %2, i64 8
  %19 = load i64, ptr %18, align 8, !tbaa !36
  %20 = icmp ult i64 %19, 16
  call void @llvm.assume(i1 %20)
  br label %_ZNSt7__cxx1112basic_stringIcSt11char_traitsIcESaIcEED2Ev.exit.i.i

_ZNKSt7__cxx1112basic_stringIcSt11char_traitsIcESaIcEE11_M_is_localEv.exit.i.i.i.i: ; preds = %13
  %21 = load i64, ptr %16, align 8, !tbaa !19
  %22 = add i64 %21, 1
  call void @_ZdlPvm(ptr noundef %15, i64 noundef %22) #32
  br label %_ZNSt7__cxx1112basic_stringIcSt11char_traitsIcESaIcEED2Ev.exit.i.i

_ZNSt7__cxx1112basic_stringIcSt11char_traitsIcESaIcEED2Ev.exit.i.i: ; preds = %_ZNKSt7__cxx1112basic_stringIcSt11char_traitsIcESaIcEE11_M_is_localEv.exit.i.i.i.i, %_ZNKSt7__cxx1112basic_stringIcSt11char_traitsIcESaIcEE11_M_is_localEv.exit.thread.i.i.i.i
  call void @llvm.lifetime.end.p0(i64 32, ptr nonnull %2) #29
  resume { ptr, i32 } %14

"_ZZNK6open3d4core10SizeVector11NumElementsEvENK3$_0clERKlS4_.exit.i": ; preds = %.lr.ph.i
  %23 = mul nuw nsw i64 %.05.val.i, %.010.i
  %24 = getelementptr inbounds nuw i8, ptr %.059.i, i64 8
  %.not.i = icmp eq ptr %24, %9
  br i1 %.not.i, label %"_ZSt10accumulateIPKlxZNK6open3d4core10SizeVector11NumElementsEvE3$_0ET0_T_S7_S6_T1_.exit", label %.lr.ph.i, !llvm.loop !630

"_ZSt10accumulateIPKlxZNK6open3d4core10SizeVector11NumElementsEvE3$_0ET0_T_S7_S6_T1_.exit": ; preds = %"_ZZNK6open3d4core10SizeVector11NumElementsEvENK3$_0clERKlS4_.exit.i", %1
  %.0 = phi i64 [ 1, %1 ], [ %23, %"_ZZNK6open3d4core10SizeVector11NumElementsEvENK3$_0clERKlS4_.exit.i" ]
  ret i64 %.0
}